target datalayout = "e-m:e-p270:32:32-p271:32:32-p272:64:64-i64:64-i128:128-f80:128-n8:16:32:64-S128"
target triple = "x86_64-unknown-linux-gnu"

%"class.proxygen::HeaderCodec" = type { ptr, %"struct.proxygen::HTTPHeaderSize", i32, i64, ptr }
%"struct.proxygen::HTTPHeaderSize" = type { i32, i32, i32 }

; Function Attrs: mustprogress uwtable
define void @_ZN8proxygen10QPACKCodec20recordCompressedSizeEPKN5folly5IOBufEm(ptr noundef nonnull align 8 dereferenceable(1024) %this, ptr noundef %stream, i64 noundef %controlSize) #4 align 2 {
entry:
  %this.addr = alloca ptr, align 8
  %stream.addr = alloca ptr, align 8
  %controlSize.addr = alloca i64, align 8
  store ptr %this, ptr %this.addr, align 8
  store ptr %stream, ptr %stream.addr, align 8
  store i64 %controlSize, ptr %controlSize.addr, align 8
  %this1 = load ptr, ptr %this.addr, align 8
  %encodedSize_ = getelementptr inbounds %"class.proxygen::HeaderCodec", ptr %this1, i32 0, i32 1
  %compressed = getelementptr inbounds %"struct.proxygen::HTTPHeaderSize", ptr %encodedSize_, i32 0, i32 0
  store i32 0, ptr %compressed, align 8
  %encodedSize_2 = getelementptr inbounds %"class.proxygen::HeaderCodec", ptr %this1, i32 0, i32 1
  %compressedBlock = getelementptr inbounds %"struct.proxygen::HTTPHeaderSize", ptr %encodedSize_2, i32 0, i32 2
  store i32 0, ptr %compressedBlock, align 8
  %0 = load i64, ptr %controlSize.addr, align 8
  %encodedSize_3 = getelementptr inbounds %"class.proxygen::HeaderCodec", ptr %this1, i32 0, i32 1
  %compressed4 = getelementptr inbounds %"struct.proxygen::HTTPHeaderSize", ptr %encodedSize_3, i32 0, i32 0
  %1 = load i32, ptr %compressed4, align 8
  %conv = zext i32 %1 to i64
  %add = add i64 %conv, %0
  %conv5 = trunc i64 %add to i32
  store i32 %conv5, ptr %compressed4, align 8
  %2 = load ptr, ptr %stream.addr, align 8
  %tobool = icmp ne ptr %2, null
  br i1 %tobool, label %if.then, label %if.end

if.then:                                          ; preds = %entry
  %3 = load ptr, ptr %stream.addr, align 8
  %call = call noundef i64 @_ZNK5folly5IOBuf22computeChainDataLengthEv(ptr noundef nonnull align 8 dereferenceable(56) %3)
  %conv6 = trunc i64 %call to i32
  %encodedSize_7 = getelementptr inbounds %"class.proxygen::HeaderCodec", ptr %this1, i32 0, i32 1
  %compressedBlock8 = getelementptr inbounds %"struct.proxygen::HTTPHeaderSize", ptr %encodedSize_7, i32 0, i32 2
  store i32 %conv6, ptr %compressedBlock8, align 8
  %encodedSize_9 = getelementptr inbounds %"class.proxygen::HeaderCodec", ptr %this1, i32 0, i32 1
  %compressedBlock10 = getelementptr inbounds %"struct.proxygen::HTTPHeaderSize", ptr %encodedSize_9, i32 0, i32 2
  %4 = load i32, ptr %compressedBlock10, align 8
  %encodedSize_11 = getelementptr inbounds %"class.proxygen::HeaderCodec", ptr %this1, i32 0, i32 1
  %compressed12 = getelementptr inbounds %"struct.proxygen::HTTPHeaderSize", ptr %encodedSize_11, i32 0, i32 0
  %5 = load i32, ptr %compressed12, align 8
  %add13 = add i32 %5, %4
  store i32 %add13, ptr %compressed12, align 8
  br label %if.end

if.end:                                           ; preds = %if.then, %entry
  %stats_ = getelementptr inbounds %"class.proxygen::HeaderCodec", ptr %this1, i32 0, i32 4
  %6 = load ptr, ptr %stats_, align 8
  %tobool14 = icmp ne ptr %6, null
  br i1 %tobool14, label %if.then15, label %if.end18

if.then15:                                        ; preds = %if.end
  %stats_16 = getelementptr inbounds %"class.proxygen::HeaderCodec", ptr %this1, i32 0, i32 4
  %7 = load ptr, ptr %stats_16, align 8
  %encodedSize_17 = getelementptr inbounds %"class.proxygen::HeaderCodec", ptr %this1, i32 0, i32 1
  %vtable = load ptr, ptr %7, align 8
  %vfn = getelementptr inbounds ptr, ptr %vtable, i64 2
  %8 = load ptr, ptr %vfn, align 8
  call void %8(ptr noundef nonnull align 8 dereferenceable(8) %7, i8 noundef zeroext 2, ptr noundef nonnull align 4 dereferenceable(12) %encodedSize_17)
  br label %if.end18

if.end18:                                         ; preds = %if.then15, %if.end
  ret void
}