; Function Attrs: mustprogress uwtable
define void @_ZN8proxygen10QPACKCodec20recordCompressedSizeEPKN5folly5IOBufEm(ptr noundef nonnull align 8 dereferenceable(1024) %this, ptr noundef %stream, i64 noundef %controlSize) local_unnamed_addr #3 align 2 {
entry:
  %encodedSize_ = getelementptr inbounds i8, ptr %this, i64 8
  %compressedBlock = getelementptr inbounds i8, ptr %this, i64 16
  store i32 0, ptr %compressedBlock, align 8
  %conv5 = trunc i64 %controlSize to i32
  store i32 %conv5, ptr %encodedSize_, align 8
  %tobool.not = icmp eq ptr %stream, null
  br i1 %tobool.not, label %if.end, label %if.then

if.then:                                          ; preds = %entry
  %call = tail call noundef i64 @_ZNK5folly5IOBuf22computeChainDataLengthEv(ptr noundef nonnull align 8 dereferenceable(56) %stream)
  %conv6 = trunc i64 %call to i32
  store i32 %conv6, ptr %compressedBlock, align 8
  %0 = load i32, ptr %encodedSize_, align 8
  %add13 = add i32 %0, %conv6
  store i32 %add13, ptr %encodedSize_, align 8
  br label %if.end

if.end:                                           ; preds = %if.then, %entry
  %stats_ = getelementptr inbounds i8, ptr %this, i64 32
  %1 = load ptr, ptr %stats_, align 8
  %tobool14.not = icmp eq ptr %1, null
  br i1 %tobool14.not, label %if.end18, label %if.then15

if.then15:                                        ; preds = %if.end
  %vtable = load ptr, ptr %1, align 8
  %vfn = getelementptr inbounds i8, ptr %vtable, i64 16
  %2 = load ptr, ptr %vfn, align 8
  tail call void %2(ptr noundef nonnull align 8 dereferenceable(8) %1, i8 noundef zeroext 2, ptr noundef nonnull align 4 dereferenceable(12) %encodedSize_)
  br label %if.end18

if.end18:                                         ; preds = %if.then15, %if.end
  ret void
}